; Function Attrs: mustprogress nofree norecurse nosync nounwind willreturn memory(none) uwtable
define noundef i32 @_ZN5folly6detail17crc32c_combine_swEjjm(i32 noundef %0, i32 noundef %1, i64 noundef %2) local_unnamed_addr #0 {
  %.not1.i = icmp ult i64 %2, 4
  br i1 %.not1.i, label %_ZN5follyL19crc32_append_zeroesIPFjjjjEEEjT_jmjRKSt5arrayIjLm62EE.exit, label %.lr.ph.preheader.i

.lr.ph.preheader.i:                               ; preds = %3
  %4 = lshr i64 %2, 2
  br label %.lr.ph.i

.lr.ph.i:                                         ; preds = %_ZN5follyL14gf_multiply_swEjjj.exit.i, %.lr.ph.preheader.i
  %.04.i = phi i32 [ %10, %_ZN5follyL14gf_multiply_swEjjj.exit.i ], [ %0, %.lr.ph.preheader.i ]
  %.0143.i = phi ptr [ %20, %_ZN5follyL14gf_multiply_swEjjj.exit.i ], [ @_ZN5follyL13crc32c_powersE, %.lr.ph.preheader.i ]
  %.0152.i = phi i64 [ %19, %_ZN5follyL14gf_multiply_swEjjj.exit.i ], [ %4, %.lr.ph.preheader.i ]
  %5 = tail call range(i64 0, 65) i64 @llvm.cttz.i64(i64 %.0152.i, i1 true)
  %6 = getelementptr inbounds nuw i32, ptr %.0143.i, i64 %5
  %7 = load i32, ptr %6, align 4, !tbaa !7
  br label %tailrecurse.i.i.i

tailrecurse.i.i.i:                                ; preds = %tailrecurse.i.i.i, %.lr.ph.i
  %.tr1318.i.i.i = phi i32 [ %16, %tailrecurse.i.i.i ], [ %7, %.lr.ph.i ]
  %.tr1217.i.i.i = phi i32 [ %15, %tailrecurse.i.i.i ], [ %.04.i, %.lr.ph.i ]
  %.tr1116.i.i.i = phi i32 [ %10, %tailrecurse.i.i.i ], [ 0, %.lr.ph.i ]
  %.tr15.i.i.i = phi i64 [ %8, %tailrecurse.i.i.i ], [ 0, %.lr.ph.i ]
  %8 = add nuw nsw i64 %.tr15.i.i.i, 1
  %isneg.i.i.i = icmp slt i32 %.tr1318.i.i.i, 0
  %9 = select i1 %isneg.i.i.i, i32 %.tr1217.i.i.i, i32 0
  %10 = xor i32 %9, %.tr1116.i.i.i
  %11 = lshr i32 %.tr1217.i.i.i, 1
  %12 = and i32 %.tr1217.i.i.i, 1
  %13 = icmp eq i32 %12, 0
  %14 = select i1 %13, i32 0, i32 -2097792136
  %15 = xor i32 %14, %11
  %16 = shl i32 %.tr1318.i.i.i, 1
  %17 = icmp eq i64 %8, 32
  br i1 %17, label %_ZN5follyL14gf_multiply_swEjjj.exit.i, label %tailrecurse.i.i.i

_ZN5follyL14gf_multiply_swEjjj.exit.i:            ; preds = %tailrecurse.i.i.i
  %18 = lshr i64 %.0152.i, %5
  %19 = lshr i64 %18, 1
  %20 = getelementptr inbounds nuw i8, ptr %6, i64 4
  %.not.i = icmp samesign ult i64 %18, 2
  br i1 %.not.i, label %_ZN5follyL19crc32_append_zeroesIPFjjjjEEEjT_jmjRKSt5arrayIjLm62EE.exit, label %.lr.ph.i, !llvm.loop !11

_ZN5follyL19crc32_append_zeroesIPFjjjjEEEjT_jmjRKSt5arrayIjLm62EE.exit: ; preds = %_ZN5follyL14gf_multiply_swEjjj.exit.i, %3
  %.0.lcssa.i = phi i32 [ %0, %3 ], [ %10, %_ZN5follyL14gf_multiply_swEjjj.exit.i ]
  %21 = xor i32 %.0.lcssa.i, %1
  ret i32 %21
}